target datalayout = "e-m:e-p270:32:32-p271:32:32-p272:64:64-i64:64-i128:128-f80:128-n8:16:32:64-S128"
target triple = "x86_64-pc-linux-gnu"

%"class.ade::details::MetadataId" = type { ptr }
%"class.cv::gimpl::GCPUExecutable" = type <{ %"class.cv::gimpl::GIslandExecutable", ptr, %"class.ade::ConstTypedGraph", %"class.std::vector", %"class.std::vector.3", %"class.std::unordered_map", %"class.std::vector.13", %"class.std::vector.13", %"struct.cv::gimpl::magazine::Class", %"struct.std::once_flag", [4 x i8] }>
%"class.cv::gimpl::GIslandExecutable" = type { ptr }
%"class.ade::ConstTypedGraph" = type { i64, %"struct.std::array" }
%"struct.std::array" = type { [23 x %"class.ade::details::MetadataId"] }
%"class.std::vector" = type { %"struct.std::_Vector_base" }
%"struct.std::_Vector_base" = type { %"struct.std::_Vector_base<cv::GCompileArg, std::allocator<cv::GCompileArg>>::_Vector_impl" }
%"struct.std::_Vector_base<cv::GCompileArg, std::allocator<cv::GCompileArg>>::_Vector_impl" = type { %"struct.std::_Vector_base<cv::GCompileArg, std::allocator<cv::GCompileArg>>::_Vector_impl_data" }
%"struct.std::_Vector_base<cv::GCompileArg, std::allocator<cv::GCompileArg>>::_Vector_impl_data" = type { ptr, ptr, ptr }
%"class.std::vector.3" = type { %"struct.std::_Vector_base.4" }
%"struct.std::_Vector_base.4" = type { %"struct.std::_Vector_base<cv::gimpl::GCPUExecutable::OperationInfo, std::allocator<cv::gimpl::GCPUExecutable::OperationInfo>>::_Vector_impl" }
%"struct.std::_Vector_base<cv::gimpl::GCPUExecutable::OperationInfo, std::allocator<cv::gimpl::GCPUExecutable::OperationInfo>>::_Vector_impl" = type { %"struct.std::_Vector_base<cv::gimpl::GCPUExecutable::OperationInfo, std::allocator<cv::gimpl::GCPUExecutable::OperationInfo>>::_Vector_impl_data" }
%"struct.std::_Vector_base<cv::gimpl::GCPUExecutable::OperationInfo, std::allocator<cv::gimpl::GCPUExecutable::OperationInfo>>::_Vector_impl_data" = type { ptr, ptr, ptr }
%"class.std::unordered_map" = type { %"class.std::_Hashtable" }
%"class.std::_Hashtable" = type { %"struct.std::__detail::_Hashtable_base", ptr, i64, %"struct.std::__detail::_Hash_node_base", i64, %"struct.std::__detail::_Prime_rehash_policy", ptr }
%"struct.std::__detail::_Hashtable_base" = type { %"struct.std::__detail::_Hash_code_base" }
%"struct.std::__detail::_Hash_code_base" = type { %"struct.std::__detail::_Hashtable_ebo_helper" }
%"struct.std::__detail::_Hashtable_ebo_helper" = type { %"struct.ade::HandleHasher" }
%"struct.ade::HandleHasher" = type { i8 }
%"struct.std::__detail::_Hash_node_base" = type { ptr }
%"struct.std::__detail::_Prime_rehash_policy" = type { float, i64 }
%"class.std::vector.13" = type { %"struct.std::_Vector_base.14" }
%"struct.std::_Vector_base.14" = type { %"struct.std::_Vector_base<ade::Handle<ade::Node>, std::allocator<ade::Handle<ade::Node>>>::_Vector_impl" }
%"struct.std::_Vector_base<ade::Handle<ade::Node>, std::allocator<ade::Handle<ade::Node>>>::_Vector_impl" = type { %"struct.std::_Vector_base<ade::Handle<ade::Node>, std::allocator<ade::Handle<ade::Node>>>::_Vector_impl_data" }
%"struct.std::_Vector_base<ade::Handle<ade::Node>, std::allocator<ade::Handle<ade::Node>>>::_Vector_impl_data" = type { ptr, ptr, ptr }
%"struct.cv::gimpl::magazine::Class" = type { %"class.std::tuple", %"struct.std::array.148" }
%"class.std::tuple" = type { %"struct.std::_Tuple_impl" }
%"struct.std::_Tuple_impl" = type { %"struct.std::_Tuple_impl.18", %"struct.std::_Head_base.133" }
%"struct.std::_Tuple_impl.18" = type { %"struct.std::_Tuple_impl.19", %"struct.std::_Head_base.118" }
%"struct.std::_Tuple_impl.19" = type { %"struct.std::_Tuple_impl.20", %"struct.std::_Head_base.103" }
%"struct.std::_Tuple_impl.20" = type { %"struct.std::_Tuple_impl.21", %"struct.std::_Head_base.88" }
%"struct.std::_Tuple_impl.21" = type { %"struct.std::_Tuple_impl.22", %"struct.std::_Head_base.73" }
%"struct.std::_Tuple_impl.22" = type { %"struct.std::_Tuple_impl.23", %"struct.std::_Head_base.58" }
%"struct.std::_Tuple_impl.23" = type { %"struct.std::_Tuple_impl.24", %"struct.std::_Head_base.43" }
%"struct.std::_Tuple_impl.24" = type { %"struct.std::_Head_base" }
%"struct.std::_Head_base" = type { %"class.std::unordered_map.25" }
%"class.std::unordered_map.25" = type { %"class.std::_Hashtable.26" }
%"class.std::_Hashtable.26" = type { ptr, i64, %"struct.std::__detail::_Hash_node_base", i64, %"struct.std::__detail::_Prime_rehash_policy", ptr }
%"struct.std::_Head_base.43" = type { %"class.std::unordered_map.44" }
%"class.std::unordered_map.44" = type { %"class.std::_Hashtable.45" }
%"class.std::_Hashtable.45" = type { ptr, i64, %"struct.std::__detail::_Hash_node_base", i64, %"struct.std::__detail::_Prime_rehash_policy", ptr }
%"struct.std::_Head_base.58" = type { %"class.std::unordered_map.59" }
%"class.std::unordered_map.59" = type { %"class.std::_Hashtable.60" }
%"class.std::_Hashtable.60" = type { ptr, i64, %"struct.std::__detail::_Hash_node_base", i64, %"struct.std::__detail::_Prime_rehash_policy", ptr }
%"struct.std::_Head_base.73" = type { %"class.std::unordered_map.74" }
%"class.std::unordered_map.74" = type { %"class.std::_Hashtable.75" }
%"class.std::_Hashtable.75" = type { ptr, i64, %"struct.std::__detail::_Hash_node_base", i64, %"struct.std::__detail::_Prime_rehash_policy", ptr }
%"struct.std::_Head_base.88" = type { %"class.std::unordered_map.89" }
%"class.std::unordered_map.89" = type { %"class.std::_Hashtable.90" }
%"class.std::_Hashtable.90" = type { ptr, i64, %"struct.std::__detail::_Hash_node_base", i64, %"struct.std::__detail::_Prime_rehash_policy", ptr }
%"struct.std::_Head_base.103" = type { %"class.std::unordered_map.104" }
%"class.std::unordered_map.104" = type { %"class.std::_Hashtable.105" }
%"class.std::_Hashtable.105" = type { ptr, i64, %"struct.std::__detail::_Hash_node_base", i64, %"struct.std::__detail::_Prime_rehash_policy", ptr }
%"struct.std::_Head_base.118" = type { %"class.std::unordered_map.119" }
%"class.std::unordered_map.119" = type { %"class.std::_Hashtable.120" }
%"class.std::_Hashtable.120" = type { ptr, i64, %"struct.std::__detail::_Hash_node_base", i64, %"struct.std::__detail::_Prime_rehash_policy", ptr }
%"struct.std::_Head_base.133" = type { %"class.std::unordered_map.134" }
%"class.std::unordered_map.134" = type { %"class.std::_Hashtable.135" }
%"class.std::_Hashtable.135" = type { ptr, i64, %"struct.std::__detail::_Hash_node_base", i64, %"struct.std::__detail::_Prime_rehash_policy", ptr }
%"struct.std::array.148" = type { [8 x %"class.std::unordered_map.149"] }
%"class.std::unordered_map.149" = type { %"class.std::_Hashtable.150" }
%"class.std::_Hashtable.150" = type { ptr, i64, %"struct.std::__detail::_Hash_node_base", i64, %"struct.std::__detail::_Prime_rehash_policy", ptr }
%"struct.std::once_flag" = type { i32 }
%class.anon = type { i8 }
%class.anon.666 = type { ptr }
%"struct.std::once_flag::_Prepare_execution" = type { i8 }
%class.anon.667 = type { i8 }

@_ZSt15__once_callable = external thread_local global ptr, align 8
@_ZSt11__once_call = external thread_local global ptr, align 8

; Function Attrs: mustprogress nounwind uwtable
define internal noundef i32 @_ZL18__gthread_active_pv() #5 {
  ret i32 1
}

; Function Attrs: mustprogress nounwind uwtable
define internal noundef ptr @"_ZZNSt9once_flag18_Prepare_executionC1IZSt9call_onceIZN2cv5gimpl14GCPUExecutable7reshapeERN3ade5GraphERKSt6vectorINS3_11GCompileArgESaISA_EEE3$_0JEEvRS_OT_DpOT0_EUlvE_EERSH_ENKUlvE_cvPFvvEEv"(ptr noundef nonnull align 1 dereferenceable(1) %0) #5 align 2 {
  %2 = alloca ptr, align 8
  store ptr %0, ptr %2, align 8
  ret ptr @"_ZZNSt9once_flag18_Prepare_executionC1IZSt9call_onceIZN2cv5gimpl14GCPUExecutable7reshapeERN3ade5GraphERKSt6vectorINS3_11GCompileArgESaISA_EEE3$_0JEEvRS_OT_DpOT0_EUlvE_EERSH_ENUlvE_8__invokeEv"
}

; Function Attrs: mustprogress nounwind uwtable
define linkonce_odr hidden noundef i64 @_ZNKSt10_HashtableIN3ade6HandleINS0_4NodeEEESt4pairIKS3_N2cv4GArgEESaIS8_ENSt8__detail10_Select1stESt8equal_toIS3_ENS0_12HandleHasherIS2_EENSA_18_Mod_range_hashingENSA_20_Default_ranged_hashENSA_20_Prime_rehash_policyENSA_17_Hashtable_traitsILb1ELb0ELb1EEEE4sizeEv(ptr noundef nonnull align 8 dereferenceable(64) %0) #5 comdat align 2 {
  %2 = alloca ptr, align 8
  store ptr %0, ptr %2, align 8
  %3 = load ptr, ptr %2, align 8
  %4 = getelementptr inbounds %"class.std::_Hashtable", ptr %3, i32 0, i32 4
  %5 = load i64, ptr %4, align 8
  ret i64 %5
}

; Function Attrs: mustprogress nounwind uwtable
define linkonce_odr hidden void @_ZNSt9once_flag18_Prepare_executionD2Ev(ptr noundef nonnull align 1 dereferenceable(1) %0) unnamed_addr #5 comdat align 2 {
  %2 = alloca ptr, align 8
  store ptr %0, ptr %2, align 8
  %3 = call align 8 ptr @llvm.threadlocal.address.p0(ptr align 8 @_ZSt15__once_callable)
  store ptr null, ptr %3, align 8
  %4 = call align 8 ptr @llvm.threadlocal.address.p0(ptr align 8 @_ZSt11__once_call)
  store ptr null, ptr %4, align 8
  ret void
}

; Function Attrs: mustprogress uwtable
define internal noundef i32 @_ZL14__gthread_oncePiPFvvE(ptr noundef %0, ptr noundef %1) #4 {
  %3 = alloca i32, align 4
  %4 = alloca ptr, align 8
  %5 = alloca ptr, align 8
  store ptr %0, ptr %4, align 8
  store ptr %1, ptr %5, align 8
  %6 = call noundef i32 @_ZL18__gthread_active_pv()
  %7 = icmp ne i32 %6, 0
  br i1 %7, label %8, label %12

8:                                                ; preds = %2
  %9 = load ptr, ptr %4, align 8
  %10 = load ptr, ptr %5, align 8
  %11 = call i32 @pthread_once(ptr noundef %9, ptr noundef %10)
  store i32 %11, ptr %3, align 4
  br label %13

12:                                               ; preds = %2
  store i32 -1, ptr %3, align 4
  br label %13

13:                                               ; preds = %12, %8
  %14 = load i32, ptr %3, align 4
  ret i32 %14
}

; Function Attrs: mustprogress nounwind uwtable
define internal void @"_ZNSt9once_flag18_Prepare_executionC2IZSt9call_onceIZN2cv5gimpl14GCPUExecutable7reshapeERN3ade5GraphERKSt6vectorINS3_11GCompileArgESaISA_EEE3$_0JEEvRS_OT_DpOT0_EUlvE_EERSH_"(ptr noundef nonnull align 1 dereferenceable(1) %0, ptr noundef nonnull align 8 dereferenceable(8) %1) unnamed_addr #5 align 2 {
  %3 = alloca ptr, align 8
  %4 = alloca ptr, align 8
  %5 = alloca %class.anon.667, align 1
  store ptr %0, ptr %3, align 8
  store ptr %1, ptr %4, align 8
  %6 = load ptr, ptr %4, align 8
  %7 = call align 8 ptr @llvm.threadlocal.address.p0(ptr align 8 @_ZSt15__once_callable)
  store ptr %6, ptr %7, align 8
  %8 = call noundef ptr @"_ZZNSt9once_flag18_Prepare_executionC1IZSt9call_onceIZN2cv5gimpl14GCPUExecutable7reshapeERN3ade5GraphERKSt6vectorINS3_11GCompileArgESaISA_EEE3$_0JEEvRS_OT_DpOT0_EUlvE_EERSH_ENKUlvE_cvPFvvEEv"(ptr noundef nonnull align 1 dereferenceable(1) %5) #3
  %9 = call align 8 ptr @llvm.threadlocal.address.p0(ptr align 8 @_ZSt11__once_call)
  store ptr %8, ptr %9, align 8
  ret void
}

; Function Attrs: mustprogress nounwind uwtable
define linkonce_odr hidden noundef zeroext i1 @_ZNKSt10_HashtableIN3ade6HandleINS0_4NodeEEESt4pairIKS3_N2cv4GArgEESaIS8_ENSt8__detail10_Select1stESt8equal_toIS3_ENS0_12HandleHasherIS2_EENSA_18_Mod_range_hashingENSA_20_Default_ranged_hashENSA_20_Prime_rehash_policyENSA_17_Hashtable_traitsILb1ELb0ELb1EEEE5emptyEv(ptr noundef nonnull align 8 dereferenceable(64) %0) #5 comdat align 2 {
  %2 = alloca ptr, align 8
  store ptr %0, ptr %2, align 8
  %3 = load ptr, ptr %2, align 8
  %4 = call noundef i64 @_ZNKSt10_HashtableIN3ade6HandleINS0_4NodeEEESt4pairIKS3_N2cv4GArgEESaIS8_ENSt8__detail10_Select1stESt8equal_toIS3_ENS0_12HandleHasherIS2_EENSA_18_Mod_range_hashingENSA_20_Default_ranged_hashENSA_20_Prime_rehash_policyENSA_17_Hashtable_traitsILb1ELb0ELb1EEEE4sizeEv(ptr noundef nonnull align 8 dereferenceable(64) %3) #3
  %5 = icmp eq i64 %4, 0
  ret i1 %5
}

; Function Attrs: mustprogress uwtable
define internal void @"_ZSt9call_onceIZN2cv5gimpl14GCPUExecutable7reshapeERN3ade5GraphERKSt6vectorINS0_11GCompileArgESaIS7_EEE3$_0JEEvRSt9once_flagOT_DpOT0_"(ptr noundef nonnull align 4 dereferenceable(4) %0, ptr noundef nonnull align 1 dereferenceable(1) %1) #4 personality ptr @__gxx_personality_v0 {
  %3 = alloca ptr, align 8
  %4 = alloca ptr, align 8
  %5 = alloca %class.anon.666, align 8
  %6 = alloca %"struct.std::once_flag::_Prepare_execution", align 1
  %7 = alloca i32, align 4
  %8 = alloca ptr, align 8
  %9 = alloca i32, align 4
  store ptr %0, ptr %3, align 8
  store ptr %1, ptr %4, align 8
  %10 = getelementptr inbounds %class.anon.666, ptr %5, i32 0, i32 0
  %11 = load ptr, ptr %4, align 8
  store ptr %11, ptr %10, align 8
  call void @"_ZNSt9once_flag18_Prepare_executionC2IZSt9call_onceIZN2cv5gimpl14GCPUExecutable7reshapeERN3ade5GraphERKSt6vectorINS3_11GCompileArgESaISA_EEE3$_0JEEvRS_OT_DpOT0_EUlvE_EERSH_"(ptr noundef nonnull align 1 dereferenceable(1) %6, ptr noundef nonnull align 8 dereferenceable(8) %5)
  %12 = load ptr, ptr %3, align 8
  %13 = getelementptr inbounds %"struct.std::once_flag", ptr %12, i32 0, i32 0
  %14 = invoke noundef i32 @_ZL14__gthread_oncePiPFvvE(ptr noundef %13, ptr noundef @__once_proxy)
          to label %15 unwind label %21

15:                                               ; preds = %2
  store i32 %14, ptr %7, align 4
  %16 = load i32, ptr %7, align 4
  %17 = icmp ne i32 %16, 0
  br i1 %17, label %18, label %25

18:                                               ; preds = %15
  %19 = load i32, ptr %7, align 4
  invoke void @_ZSt20__throw_system_errori(i32 noundef %19) #17
          to label %20 unwind label %21

20:                                               ; preds = %18
  unreachable

21:                                               ; preds = %18, %2
  %22 = landingpad { ptr, i32 }
          cleanup
  %23 = extractvalue { ptr, i32 } %22, 0
  store ptr %23, ptr %8, align 8
  %24 = extractvalue { ptr, i32 } %22, 1
  store i32 %24, ptr %9, align 4
  call void @_ZNSt9once_flag18_Prepare_executionD2Ev(ptr noundef nonnull align 1 dereferenceable(1) %6) #3
  br label %26

25:                                               ; preds = %15
  call void @_ZNSt9once_flag18_Prepare_executionD2Ev(ptr noundef nonnull align 1 dereferenceable(1) %6) #3
  ret void

26:                                               ; preds = %21
  %27 = load ptr, ptr %8, align 8
  %28 = load i32, ptr %9, align 4
  %29 = insertvalue { ptr, i32 } poison, ptr %27, 0
  %30 = insertvalue { ptr, i32 } %29, i32 %28, 1
  resume { ptr, i32 } %30
}

; Function Attrs: mustprogress nounwind uwtable
define linkonce_odr hidden noundef zeroext i1 @_ZNKSt13unordered_mapIN3ade6HandleINS0_4NodeEEEN2cv4GArgENS0_12HandleHasherIS2_EESt8equal_toIS3_ESaISt4pairIKS3_S5_EEE5emptyEv(ptr noundef nonnull align 8 dereferenceable(64) %0) #5 comdat align 2 {
  %2 = alloca ptr, align 8
  store ptr %0, ptr %2, align 8
  %3 = load ptr, ptr %2, align 8
  %4 = getelementptr inbounds %"class.std::unordered_map", ptr %3, i32 0, i32 0
  %5 = call noundef zeroext i1 @_ZNKSt10_HashtableIN3ade6HandleINS0_4NodeEEESt4pairIKS3_N2cv4GArgEESaIS8_ENSt8__detail10_Select1stESt8equal_toIS3_ENS0_12HandleHasherIS2_EENSA_18_Mod_range_hashingENSA_20_Default_ranged_hashENSA_20_Prime_rehash_policyENSA_17_Hashtable_traitsILb1ELb0ELb1EEEE5emptyEv(ptr noundef nonnull align 8 dereferenceable(64) %4) #3
  ret i1 %5
}

; Function Attrs: mustprogress uwtable
define hidden void @_ZN2cv5gimpl14GCPUExecutable7reshapeERN3ade5GraphERKSt6vectorINS_11GCompileArgESaIS6_EE(ptr noundef nonnull align 8 dereferenceable(1272) %0, ptr noundef nonnull align 8 dereferenceable(168) %1, ptr noundef nonnull align 8 dereferenceable(24) %2) unnamed_addr #4 align 2 {
  %4 = alloca ptr, align 8
  %5 = alloca ptr, align 8
  %6 = alloca ptr, align 8
  %7 = alloca %class.anon, align 1
  store ptr %0, ptr %4, align 8
  store ptr %1, ptr %5, align 8
  store ptr %2, ptr %6, align 8
  %8 = load ptr, ptr %4, align 8
  %9 = load ptr, ptr %6, align 8
  %10 = getelementptr inbounds %"class.cv::gimpl::GCPUExecutable", ptr %8, i32 0, i32 3
  %11 = call noundef nonnull align 8 dereferenceable(24) ptr @_ZNSt6vectorIN2cv11GCompileArgESaIS1_EEaSERKS3_(ptr noundef nonnull align 8 dereferenceable(24) %10, ptr noundef nonnull align 8 dereferenceable(24) %9)
  call void @_ZN2cv5gimpl14GCPUExecutable11makeReshapeEv(ptr noundef nonnull align 8 dereferenceable(1272) %8)
  %12 = getelementptr inbounds %"class.cv::gimpl::GCPUExecutable", ptr %8, i32 0, i32 5
  %13 = call noundef zeroext i1 @_ZNKSt13unordered_mapIN3ade6HandleINS0_4NodeEEEN2cv4GArgENS0_12HandleHasherIS2_EESt8equal_toIS3_ESaISt4pairIKS3_S5_EEE5emptyEv(ptr noundef nonnull align 8 dereferenceable(64) %12) #3
  br i1 %13, label %16, label %14

14:                                               ; preds = %3
  %15 = getelementptr inbounds %"class.cv::gimpl::GCPUExecutable", ptr %8, i32 0, i32 9
  call void @"_ZSt9call_onceIZN2cv5gimpl14GCPUExecutable7reshapeERN3ade5GraphERKSt6vectorINS0_11GCompileArgESaIS7_EEE3$_0JEEvRSt9once_flagOT_DpOT0_"(ptr noundef nonnull align 4 dereferenceable(4) %15, ptr noundef nonnull align 1 dereferenceable(1) %7)
  call void @_ZN2cv5gimpl14GCPUExecutable17setupKernelStatesEv(ptr noundef nonnull align 8 dereferenceable(1272) %8)
  br label %16

16:                                               ; preds = %14, %3
  ret void
}