; Function Attrs: mustprogress uwtable
define hidden void @_ZN2cv5gimpl14GCPUExecutable7reshapeERN3ade5GraphERKSt6vectorINS_11GCompileArgESaIS6_EE(ptr noundef nonnull align 8 dereferenceable(1272) %0, ptr nocapture nonnull readnone align 8 %1, ptr noundef nonnull align 8 dereferenceable(24) %2) unnamed_addr #3 align 2 personality ptr @__gxx_personality_v0 {
  %4 = alloca %class.anon.666, align 8
  %5 = alloca %class.anon, align 1
  %6 = getelementptr inbounds i8, ptr %0, i64 208
  %7 = tail call noundef nonnull align 8 dereferenceable(24) ptr @_ZNSt6vectorIN2cv11GCompileArgESaIS1_EEaSERKS3_(ptr noundef nonnull align 8 dereferenceable(24) %6, ptr noundef nonnull align 8 dereferenceable(24) %2)
  tail call void @_ZN2cv5gimpl14GCPUExecutable11makeReshapeEv(ptr noundef nonnull align 8 dereferenceable(1272) %0)
  %8 = getelementptr inbounds i8, ptr %0, i64 288
  %9 = load i64, ptr %8, align 8
  %10 = icmp eq i64 %9, 0
  br i1 %10, label %20, label %11

11:                                               ; preds = %3
  %12 = getelementptr inbounds i8, ptr %0, i64 1264
  call void @llvm.lifetime.start.p0(i64 8, ptr nonnull %4)
  store ptr %5, ptr %4, align 8
  %13 = call align 8 ptr @llvm.threadlocal.address.p0(ptr align 8 @_ZSt15__once_callable)
  store ptr %4, ptr %13, align 8
  %14 = call align 8 ptr @llvm.threadlocal.address.p0(ptr align 8 @_ZSt11__once_call)
  store ptr @"_ZZNSt9once_flag18_Prepare_executionC1IZSt9call_onceIZN2cv5gimpl14GCPUExecutable7reshapeERN3ade5GraphERKSt6vectorINS3_11GCompileArgESaISA_EEE3$_0JEEvRS_OT_DpOT0_EUlvE_EERSH_ENUlvE_8__invokeEv", ptr %14, align 8
  %15 = invoke noundef i32 @pthread_once(ptr noundef nonnull %12, ptr noundef nonnull @__once_proxy)
          to label %_ZL14__gthread_oncePiPFvvE.exit.i unwind label %18

_ZL14__gthread_oncePiPFvvE.exit.i:                ; preds = %11
  %.not.i = icmp eq i32 %15, 0
  br i1 %.not.i, label %"_ZSt9call_onceIZN2cv5gimpl14GCPUExecutable7reshapeERN3ade5GraphERKSt6vectorINS0_11GCompileArgESaIS7_EEE3$_0JEEvRSt9once_flagOT_DpOT0_.exit", label %16

16:                                               ; preds = %_ZL14__gthread_oncePiPFvvE.exit.i
  invoke void @_ZSt20__throw_system_errori(i32 noundef %15) #26
          to label %17 unwind label %18

17:                                               ; preds = %16
  unreachable

18:                                               ; preds = %16, %11
  %19 = landingpad { ptr, i32 }
          cleanup
  store ptr null, ptr %13, align 8
  store ptr null, ptr %14, align 8
  resume { ptr, i32 } %19

"_ZSt9call_onceIZN2cv5gimpl14GCPUExecutable7reshapeERN3ade5GraphERKSt6vectorINS0_11GCompileArgESaIS7_EEE3$_0JEEvRSt9once_flagOT_DpOT0_.exit": ; preds = %_ZL14__gthread_oncePiPFvvE.exit.i
  store ptr null, ptr %13, align 8
  store ptr null, ptr %14, align 8
  call void @llvm.lifetime.end.p0(i64 8, ptr nonnull %4)
  call void @_ZN2cv5gimpl14GCPUExecutable17setupKernelStatesEv(ptr noundef nonnull align 8 dereferenceable(1272) %0)
  br label %20

20:                                               ; preds = %"_ZSt9call_onceIZN2cv5gimpl14GCPUExecutable7reshapeERN3ade5GraphERKSt6vectorINS0_11GCompileArgESaIS7_EEE3$_0JEEvRSt9once_flagOT_DpOT0_.exit", %3
  ret void
}